target datalayout = "e-m:e-p270:32:32-p271:32:32-p272:64:64-i64:64-i128:128-f80:128-n8:16:32:64-S128"
target triple = "x86_64-pc-linux-gnu"

%struct.poly1305_state_internal_t = type { %union.anon, [5 x i32], [5 x i32], [5 x i32], [2 x i64], i64, i64, [32 x i8] }
%union.anon = type { [3 x i64], [16 x i8] }

; Function Attrs: nounwind ssp uwtable
define internal void @poly1305_update(ptr noundef %0, ptr noundef %1, i64 noundef %2) #0 {
  %4 = alloca ptr, align 8
  %5 = alloca ptr, align 8
  %6 = alloca i64, align 8
  %7 = alloca i64, align 8
  %8 = alloca i64, align 8
  %9 = alloca i32, align 4
  %10 = alloca i64, align 8
  store ptr %0, ptr %4, align 8
  store ptr %1, ptr %5, align 8
  store i64 %2, ptr %6, align 8
  call void @llvm.lifetime.start.p0(i64 8, ptr %7) #11
  %11 = load ptr, ptr %4, align 8
  %12 = getelementptr inbounds nuw %struct.poly1305_state_internal_t, ptr %11, i32 0, i32 6
  %13 = load i64, ptr %12, align 8
  %14 = icmp ne i64 %13, 0
  br i1 %14, label %15, label %73

15:                                               ; preds = %3
  call void @llvm.lifetime.start.p0(i64 8, ptr %8) #11
  %16 = load ptr, ptr %4, align 8
  %17 = getelementptr inbounds nuw %struct.poly1305_state_internal_t, ptr %16, i32 0, i32 6
  %18 = load i64, ptr %17, align 8
  %19 = sub i64 32, %18
  store i64 %19, ptr %8, align 8
  %20 = load i64, ptr %8, align 8
  %21 = load i64, ptr %6, align 8
  %22 = icmp ugt i64 %20, %21
  br i1 %22, label %23, label %25

23:                                               ; preds = %15
  %24 = load i64, ptr %6, align 8
  store i64 %24, ptr %8, align 8
  br label %25

25:                                               ; preds = %23, %15
  store i64 0, ptr %7, align 8
  br label %26

26:                                               ; preds = %43, %25
  %27 = load i64, ptr %7, align 8
  %28 = load i64, ptr %8, align 8
  %29 = icmp ult i64 %27, %28
  br i1 %29, label %30, label %46

30:                                               ; preds = %26
  %31 = load ptr, ptr %5, align 8
  %32 = load i64, ptr %7, align 8
  %33 = getelementptr i8, ptr %31, i64 %32
  %34 = load i8, ptr %33, align 1
  %35 = load ptr, ptr %4, align 8
  %36 = getelementptr inbounds nuw %struct.poly1305_state_internal_t, ptr %35, i32 0, i32 7
  %37 = load ptr, ptr %4, align 8
  %38 = getelementptr inbounds nuw %struct.poly1305_state_internal_t, ptr %37, i32 0, i32 6
  %39 = load i64, ptr %38, align 8
  %40 = load i64, ptr %7, align 8
  %41 = add i64 %39, %40
  %42 = getelementptr [32 x i8], ptr %36, i64 0, i64 %41
  store i8 %34, ptr %42, align 1
  br label %43

43:                                               ; preds = %30
  %44 = load i64, ptr %7, align 8
  %45 = add i64 %44, 1
  store i64 %45, ptr %7, align 8
  br label %26, !llvm.loop !8

46:                                               ; preds = %26
  %47 = load i64, ptr %8, align 8
  %48 = load i64, ptr %6, align 8
  %49 = sub i64 %48, %47
  store i64 %49, ptr %6, align 8
  %50 = load i64, ptr %8, align 8
  %51 = load ptr, ptr %5, align 8
  %52 = getelementptr i8, ptr %51, i64 %50
  store ptr %52, ptr %5, align 8
  %53 = load i64, ptr %8, align 8
  %54 = load ptr, ptr %4, align 8
  %55 = getelementptr inbounds nuw %struct.poly1305_state_internal_t, ptr %54, i32 0, i32 6
  %56 = load i64, ptr %55, align 8
  %57 = add i64 %56, %53
  store i64 %57, ptr %55, align 8
  %58 = load ptr, ptr %4, align 8
  %59 = getelementptr inbounds nuw %struct.poly1305_state_internal_t, ptr %58, i32 0, i32 6
  %60 = load i64, ptr %59, align 8
  %61 = icmp ult i64 %60, 32
  br i1 %61, label %62, label %63

62:                                               ; preds = %46
  store i32 1, ptr %9, align 4
  br label %70

63:                                               ; preds = %46
  %64 = load ptr, ptr %4, align 8
  %65 = load ptr, ptr %4, align 8
  %66 = getelementptr inbounds nuw %struct.poly1305_state_internal_t, ptr %65, i32 0, i32 7
  %67 = getelementptr inbounds [32 x i8], ptr %66, i64 0, i64 0
  call void @poly1305_blocks(ptr noundef %64, ptr noundef %67, i64 noundef 32)
  %68 = load ptr, ptr %4, align 8
  %69 = getelementptr inbounds nuw %struct.poly1305_state_internal_t, ptr %68, i32 0, i32 6
  store i64 0, ptr %69, align 8
  store i32 0, ptr %9, align 4
  br label %70

70:                                               ; preds = %63, %62
  call void @llvm.lifetime.end.p0(i64 8, ptr %8) #11
  %71 = load i32, ptr %9, align 4
  switch i32 %71, label %119 [
    i32 0, label %72
  ]

72:                                               ; preds = %70
  br label %73

73:                                               ; preds = %72, %3
  %74 = load i64, ptr %6, align 8
  %75 = icmp uge i64 %74, 32
  br i1 %75, label %76, label %88

76:                                               ; preds = %73
  call void @llvm.lifetime.start.p0(i64 8, ptr %10) #11
  %77 = load i64, ptr %6, align 8
  %78 = and i64 %77, -32
  store i64 %78, ptr %10, align 8
  %79 = load ptr, ptr %4, align 8
  %80 = load ptr, ptr %5, align 8
  %81 = load i64, ptr %10, align 8
  call void @poly1305_blocks(ptr noundef %79, ptr noundef %80, i64 noundef %81)
  %82 = load i64, ptr %10, align 8
  %83 = load ptr, ptr %5, align 8
  %84 = getelementptr i8, ptr %83, i64 %82
  store ptr %84, ptr %5, align 8
  %85 = load i64, ptr %10, align 8
  %86 = load i64, ptr %6, align 8
  %87 = sub i64 %86, %85
  store i64 %87, ptr %6, align 8
  call void @llvm.lifetime.end.p0(i64 8, ptr %10) #11
  br label %88

88:                                               ; preds = %76, %73
  %89 = load i64, ptr %6, align 8
  %90 = icmp ne i64 %89, 0
  br i1 %90, label %91, label %118

91:                                               ; preds = %88
  store i64 0, ptr %7, align 8
  br label %92

92:                                               ; preds = %109, %91
  %93 = load i64, ptr %7, align 8
  %94 = load i64, ptr %6, align 8
  %95 = icmp ult i64 %93, %94
  br i1 %95, label %96, label %112

96:                                               ; preds = %92
  %97 = load ptr, ptr %5, align 8
  %98 = load i64, ptr %7, align 8
  %99 = getelementptr i8, ptr %97, i64 %98
  %100 = load i8, ptr %99, align 1
  %101 = load ptr, ptr %4, align 8
  %102 = getelementptr inbounds nuw %struct.poly1305_state_internal_t, ptr %101, i32 0, i32 7
  %103 = load ptr, ptr %4, align 8
  %104 = getelementptr inbounds nuw %struct.poly1305_state_internal_t, ptr %103, i32 0, i32 6
  %105 = load i64, ptr %104, align 8
  %106 = load i64, ptr %7, align 8
  %107 = add i64 %105, %106
  %108 = getelementptr [32 x i8], ptr %102, i64 0, i64 %107
  store i8 %100, ptr %108, align 1
  br label %109

109:                                              ; preds = %96
  %110 = load i64, ptr %7, align 8
  %111 = add i64 %110, 1
  store i64 %111, ptr %7, align 8
  br label %92, !llvm.loop !9

112:                                              ; preds = %92
  %113 = load i64, ptr %6, align 8
  %114 = load ptr, ptr %4, align 8
  %115 = getelementptr inbounds nuw %struct.poly1305_state_internal_t, ptr %114, i32 0, i32 6
  %116 = load i64, ptr %115, align 8
  %117 = add i64 %116, %113
  store i64 %117, ptr %115, align 8
  br label %118

118:                                              ; preds = %112, %88
  store i32 0, ptr %9, align 4
  br label %119

119:                                              ; preds = %118, %70
  call void @llvm.lifetime.end.p0(i64 8, ptr %7) #11
  %120 = load i32, ptr %9, align 4
  switch i32 %120, label %122 [
    i32 0, label %121
    i32 1, label %121
  ]

121:                                              ; preds = %119, %119
  ret void

122:                                              ; preds = %119
  unreachable
}

; Function Attrs: nounwind ssp uwtable
define internal i32 @crypto_onetimeauth_poly1305_sse2_update(ptr noundef %0, ptr noundef %1, i64 noundef %2) #0 {
  %4 = alloca ptr, align 8
  %5 = alloca ptr, align 8
  %6 = alloca i64, align 8
  store ptr %0, ptr %4, align 8
  store ptr %1, ptr %5, align 8
  store i64 %2, ptr %6, align 8
  %7 = load ptr, ptr %4, align 8
  %8 = load ptr, ptr %5, align 8
  %9 = load i64, ptr %6, align 8
  call void @poly1305_update(ptr noundef %7, ptr noundef %8, i64 noundef %9)
  ret i32 0
}